target datalayout = "e-m:e-p270:32:32-p271:32:32-p272:64:64-i64:64-i128:128-f80:128-n8:16:32:64-S128"
target triple = "x86_64-pc-linux-gnu"

%struct.gz_state = type { %struct.gzFile_s, i32, i32, ptr, i32, i32, ptr, ptr, i32, i32, i64, i32, i32, i32, i32, i32, i64, i32, i32, ptr, %struct.z_stream_s }
%struct.gzFile_s = type { i32, ptr, i64 }
%struct.z_stream_s = type { ptr, i32, i64, ptr, i32, i64, ptr, ptr, ptr, ptr, ptr, i32, i64, i64 }

@.str.1 = private unnamed_addr constant [33 x i8] c"request does not fit in a size_t\00", align 1

; Function Attrs: nounwind uwtable
define i64 @gzfwrite(ptr noundef %0, i64 noundef %1, i64 noundef %2, ptr noundef %3) #0 {
  %5 = alloca i64, align 8
  %6 = alloca ptr, align 8
  %7 = alloca i64, align 8
  %8 = alloca i64, align 8
  %9 = alloca ptr, align 8
  %10 = alloca i64, align 8
  %11 = alloca ptr, align 8
  %12 = alloca i32, align 4
  store ptr %0, ptr %6, align 8, !tbaa !8
  store i64 %1, ptr %7, align 8, !tbaa !19
  store i64 %2, ptr %8, align 8, !tbaa !19
  store ptr %3, ptr %9, align 8, !tbaa !3
  call void @llvm.lifetime.start.p0(i64 8, ptr %10) #10
  call void @llvm.lifetime.start.p0(i64 8, ptr %11) #10
  %13 = load ptr, ptr %9, align 8, !tbaa !3
  %14 = icmp eq ptr %13, null
  br i1 %14, label %15, label %16

15:                                               ; preds = %4
  store i64 0, ptr %5, align 8
  store i32 1, ptr %12, align 4
  br label %55

16:                                               ; preds = %4
  %17 = load ptr, ptr %9, align 8, !tbaa !3
  store ptr %17, ptr %11, align 8, !tbaa !8
  %18 = load ptr, ptr %11, align 8, !tbaa !8
  %19 = getelementptr inbounds nuw %struct.gz_state, ptr %18, i32 0, i32 1
  %20 = load i32, ptr %19, align 8, !tbaa !11
  %21 = icmp ne i32 %20, 31153
  br i1 %21, label %27, label %22

22:                                               ; preds = %16
  %23 = load ptr, ptr %11, align 8, !tbaa !8
  %24 = getelementptr inbounds nuw %struct.gz_state, ptr %23, i32 0, i32 18
  %25 = load i32, ptr %24, align 4, !tbaa !18
  %26 = icmp ne i32 %25, 0
  br i1 %26, label %27, label %28

27:                                               ; preds = %22, %16
  store i64 0, ptr %5, align 8
  store i32 1, ptr %12, align 4
  br label %55

28:                                               ; preds = %22
  %29 = load i64, ptr %8, align 8, !tbaa !19
  %30 = load i64, ptr %7, align 8, !tbaa !19
  %31 = mul i64 %29, %30
  store i64 %31, ptr %10, align 8, !tbaa !19
  %32 = load i64, ptr %7, align 8, !tbaa !19
  %33 = icmp ne i64 %32, 0
  br i1 %33, label %34, label %42

34:                                               ; preds = %28
  %35 = load i64, ptr %10, align 8, !tbaa !19
  %36 = load i64, ptr %7, align 8, !tbaa !19
  %37 = udiv i64 %35, %36
  %38 = load i64, ptr %8, align 8, !tbaa !19
  %39 = icmp ne i64 %37, %38
  br i1 %39, label %40, label %42

40:                                               ; preds = %34
  %41 = load ptr, ptr %11, align 8, !tbaa !8
  call void @gz_error(ptr noundef %41, i32 noundef -2, ptr noundef @.str.1)
  store i64 0, ptr %5, align 8
  store i32 1, ptr %12, align 4
  br label %55

42:                                               ; preds = %34, %28
  %43 = load i64, ptr %10, align 8, !tbaa !19
  %44 = icmp ne i64 %43, 0
  br i1 %44, label %45, label %52

45:                                               ; preds = %42
  %46 = load ptr, ptr %11, align 8, !tbaa !8
  %47 = load ptr, ptr %6, align 8, !tbaa !8
  %48 = load i64, ptr %10, align 8, !tbaa !19
  %49 = call i64 @gz_write(ptr noundef %46, ptr noundef %47, i64 noundef %48)
  %50 = load i64, ptr %7, align 8, !tbaa !19
  %51 = udiv i64 %49, %50
  br label %53

52:                                               ; preds = %42
  br label %53

53:                                               ; preds = %52, %45
  %54 = phi i64 [ %51, %45 ], [ 0, %52 ]
  store i64 %54, ptr %5, align 8
  store i32 1, ptr %12, align 4
  br label %55

55:                                               ; preds = %53, %40, %27, %15
  call void @llvm.lifetime.end.p0(i64 8, ptr %11) #10
  call void @llvm.lifetime.end.p0(i64 8, ptr %10) #10
  %56 = load i64, ptr %5, align 8
  ret i64 %56
}