; Function Attrs: nounwind uwtable
define noundef i64 @gzfwrite(ptr noundef %0, i64 noundef %1, i64 noundef %2, ptr noundef %3) local_unnamed_addr #0 {
  %5 = icmp eq ptr %3, null
  br i1 %5, label %19, label %6

6:                                                ; preds = %4
  %7 = getelementptr inbounds nuw i8, ptr %3, i64 24
  %8 = load i32, ptr %7, align 8, !tbaa !3
  %.not = icmp eq i32 %8, 31153
  br i1 %.not, label %9, label %19

9:                                                ; preds = %6
  %10 = getelementptr inbounds nuw i8, ptr %3, i64 116
  %11 = load i32, ptr %10, align 4, !tbaa !14
  %.not19 = icmp eq i32 %11, 0
  br i1 %.not19, label %12, label %19

12:                                               ; preds = %9
  %mul = tail call { i64, i1 } @llvm.umul.with.overflow.i64(i64 %1, i64 %2)
  %mul.val = extractvalue { i64, i1 } %mul, 0
  %.not20 = icmp eq i64 %1, 0
  br i1 %.not20, label %15, label %13

13:                                               ; preds = %12
  %mul.ov = extractvalue { i64, i1 } %mul, 1
  br i1 %mul.ov, label %14, label %15

14:                                               ; preds = %13
  tail call void @gz_error(ptr noundef nonnull %3, i32 noundef -2, ptr noundef nonnull @.str.1) #14
  br label %19

15:                                               ; preds = %13, %12
  %.not22 = icmp eq i64 %mul.val, 0
  br i1 %.not22, label %19, label %16

16:                                               ; preds = %15
  %17 = tail call fastcc i64 @gz_write(ptr noundef %3, ptr noundef %0, i64 noundef %mul.val)
  %18 = udiv i64 %17, %1
  br label %19

19:                                               ; preds = %16, %15, %6, %9, %4, %14
  %.0 = phi i64 [ 0, %14 ], [ 0, %4 ], [ 0, %9 ], [ 0, %6 ], [ %18, %16 ], [ 0, %15 ]
  ret i64 %.0
}